; Function Attrs: mustprogress nounwind uwtable
define dso_local noundef nonnull align 8 dereferenceable(24) ptr @_ZN4i18n12phonenumbers11UnicodeText7PointToERKNS1_14const_iteratorES4_(ptr noundef nonnull returned align 8 dereferenceable(24) initializes((8, 16)) %0, ptr noundef nonnull readonly align 8 captures(none) dereferenceable(8) %1, ptr noundef nonnull readonly align 8 captures(none) dereferenceable(8) %2) local_unnamed_addr #6 align 2 {
  %4 = load ptr, ptr %1, align 8, !tbaa !4
  %5 = load ptr, ptr %2, align 8, !tbaa !4
  %6 = getelementptr inbounds nuw i8, ptr %0, i64 16
  %7 = load i8, ptr %6, align 8, !tbaa !17, !range !18, !noundef !19
  %8 = trunc nuw i8 %7 to i1
  br i1 %8, label %9, label %_ZN4i18n12phonenumbers11UnicodeText4Repr7PointToEPKci.exit

9:                                                ; preds = %3
  %10 = load ptr, ptr %0, align 8, !tbaa !20
  %.not.i = icmp eq ptr %10, null
  br i1 %.not.i, label %_ZN4i18n12phonenumbers11UnicodeText4Repr7PointToEPKci.exit, label %11

11:                                               ; preds = %9
  tail call void @_ZdaPv(ptr noundef nonnull %10) #26
  br label %_ZN4i18n12phonenumbers11UnicodeText4Repr7PointToEPKci.exit

_ZN4i18n12phonenumbers11UnicodeText4Repr7PointToEPKci.exit: ; preds = %3, %9, %11
  %12 = ptrtoint ptr %5 to i64
  %13 = ptrtoint ptr %4 to i64
  %14 = sub i64 %12, %13
  %15 = trunc i64 %14 to i32
  store ptr %4, ptr %0, align 8, !tbaa !20
  %16 = getelementptr inbounds nuw i8, ptr %0, i64 8
  store i32 %15, ptr %16, align 8, !tbaa !21
  %17 = getelementptr inbounds nuw i8, ptr %0, i64 12
  store i32 %15, ptr %17, align 4, !tbaa !13
  store i8 0, ptr %6, align 8, !tbaa !17
  ret ptr %0
}